target datalayout = "e-m:e-p270:32:32-p271:32:32-p272:64:64-i64:64-i128:128-f80:128-n8:16:32:64-S128"
target triple = "x86_64-pc-linux-gnu"

%struct.FFIOContext = type { %struct.AVIOContext, ptr, i32, i32, i64, i64, i64, i64, i32, i32, i32, i64 }
%struct.AVIOContext = type { ptr, ptr, i32, ptr, ptr, ptr, ptr, ptr, ptr, i64, i32, i32, i32, i32, i32, i64, ptr, ptr, ptr, ptr, i32, i32, ptr, ptr, ptr, i32, ptr, i64, i64 }

; Function Attrs: alwaysinline nounwind uwtable
define internal ptr @ffiocontext(ptr noundef %0) #5 {
  %2 = alloca ptr, align 8
  store ptr %0, ptr %2, align 8, !tbaa !14
  %3 = load ptr, ptr %2, align 8, !tbaa !14
  ret ptr %3
}

; Function Attrs: nounwind uwtable
define internal void @writeout(ptr noundef %0, ptr noundef %1, i32 noundef %2) #0 {
  %4 = alloca ptr, align 8
  %5 = alloca ptr, align 8
  %6 = alloca i32, align 4
  %7 = alloca ptr, align 8
  %8 = alloca i32, align 4
  store ptr %0, ptr %4, align 8, !tbaa !14
  store ptr %1, ptr %5, align 8, !tbaa !9
  store i32 %2, ptr %6, align 4, !tbaa !11
  call void @llvm.lifetime.start.p0(i64 8, ptr %7) #12
  %9 = load ptr, ptr %4, align 8, !tbaa !14
  %10 = call ptr @ffiocontext(ptr noundef %9)
  store ptr %10, ptr %7, align 8, !tbaa !4
  %11 = load ptr, ptr %4, align 8, !tbaa !14
  %12 = getelementptr inbounds nuw %struct.AVIOContext, ptr %11, i32 0, i32 11
  %13 = load i32, ptr %12, align 4, !tbaa !32
  %14 = icmp ne i32 %13, 0
  br i1 %14, label %92, label %15

15:                                               ; preds = %3
  call void @llvm.lifetime.start.p0(i64 4, ptr %8) #12
  store i32 0, ptr %8, align 4, !tbaa !11
  %16 = load ptr, ptr %4, align 8, !tbaa !14
  %17 = getelementptr inbounds nuw %struct.AVIOContext, ptr %16, i32 0, i32 24
  %18 = load ptr, ptr %17, align 8, !tbaa !41
  %19 = icmp ne ptr %18, null
  br i1 %19, label %20, label %36

20:                                               ; preds = %15
  %21 = load ptr, ptr %4, align 8, !tbaa !14
  %22 = getelementptr inbounds nuw %struct.AVIOContext, ptr %21, i32 0, i32 24
  %23 = load ptr, ptr %22, align 8, !tbaa !41
  %24 = load ptr, ptr %4, align 8, !tbaa !14
  %25 = getelementptr inbounds nuw %struct.AVIOContext, ptr %24, i32 0, i32 5
  %26 = load ptr, ptr %25, align 8, !tbaa !25
  %27 = load ptr, ptr %5, align 8, !tbaa !9
  %28 = load i32, ptr %6, align 4, !tbaa !11
  %29 = load ptr, ptr %7, align 8, !tbaa !4
  %30 = getelementptr inbounds nuw %struct.FFIOContext, ptr %29, i32 0, i32 3
  %31 = load i32, ptr %30, align 4, !tbaa !43
  %32 = load ptr, ptr %7, align 8, !tbaa !4
  %33 = getelementptr inbounds nuw %struct.FFIOContext, ptr %32, i32 0, i32 4
  %34 = load i64, ptr %33, align 8, !tbaa !44
  %35 = call i32 %23(ptr noundef %26, ptr noundef %27, i32 noundef %28, i32 noundef %31, i64 noundef %34)
  store i32 %35, ptr %8, align 4, !tbaa !11
  br label %52

36:                                               ; preds = %15
  %37 = load ptr, ptr %4, align 8, !tbaa !14
  %38 = getelementptr inbounds nuw %struct.AVIOContext, ptr %37, i32 0, i32 7
  %39 = load ptr, ptr %38, align 8, !tbaa !27
  %40 = icmp ne ptr %39, null
  br i1 %40, label %41, label %51

41:                                               ; preds = %36
  %42 = load ptr, ptr %4, align 8, !tbaa !14
  %43 = getelementptr inbounds nuw %struct.AVIOContext, ptr %42, i32 0, i32 7
  %44 = load ptr, ptr %43, align 8, !tbaa !27
  %45 = load ptr, ptr %4, align 8, !tbaa !14
  %46 = getelementptr inbounds nuw %struct.AVIOContext, ptr %45, i32 0, i32 5
  %47 = load ptr, ptr %46, align 8, !tbaa !25
  %48 = load ptr, ptr %5, align 8, !tbaa !9
  %49 = load i32, ptr %6, align 4, !tbaa !11
  %50 = call i32 %44(ptr noundef %47, ptr noundef %48, i32 noundef %49)
  store i32 %50, ptr %8, align 4, !tbaa !11
  br label %51

51:                                               ; preds = %41, %36
  br label %52

52:                                               ; preds = %51, %20
  %53 = load i32, ptr %8, align 4, !tbaa !11
  %54 = icmp slt i32 %53, 0
  br i1 %54, label %55, label %59

55:                                               ; preds = %52
  %56 = load i32, ptr %8, align 4, !tbaa !11
  %57 = load ptr, ptr %4, align 8, !tbaa !14
  %58 = getelementptr inbounds nuw %struct.AVIOContext, ptr %57, i32 0, i32 11
  store i32 %56, ptr %58, align 4, !tbaa !32
  br label %91

59:                                               ; preds = %52
  %60 = load i32, ptr %6, align 4, !tbaa !11
  %61 = sext i32 %60 to i64
  %62 = load ptr, ptr %7, align 8, !tbaa !4
  %63 = getelementptr inbounds nuw %struct.FFIOContext, ptr %62, i32 0, i32 7
  %64 = load i64, ptr %63, align 8, !tbaa !57
  %65 = add nsw i64 %64, %61
  store i64 %65, ptr %63, align 8, !tbaa !57
  %66 = load ptr, ptr %7, align 8, !tbaa !4
  %67 = getelementptr inbounds nuw %struct.FFIOContext, ptr %66, i32 0, i32 7
  %68 = load i64, ptr %67, align 8, !tbaa !57
  %69 = load ptr, ptr %4, align 8, !tbaa !14
  %70 = getelementptr inbounds nuw %struct.AVIOContext, ptr %69, i32 0, i32 28
  store i64 %68, ptr %70, align 8, !tbaa !58
  %71 = load ptr, ptr %4, align 8, !tbaa !14
  %72 = getelementptr inbounds nuw %struct.AVIOContext, ptr %71, i32 0, i32 9
  %73 = load i64, ptr %72, align 8, !tbaa !30
  %74 = load i32, ptr %6, align 4, !tbaa !11
  %75 = sext i32 %74 to i64
  %76 = add nsw i64 %73, %75
  %77 = load ptr, ptr %7, align 8, !tbaa !4
  %78 = getelementptr inbounds nuw %struct.FFIOContext, ptr %77, i32 0, i32 11
  %79 = load i64, ptr %78, align 8, !tbaa !59
  %80 = icmp sgt i64 %76, %79
  br i1 %80, label %81, label %90

81:                                               ; preds = %59
  %82 = load ptr, ptr %4, align 8, !tbaa !14
  %83 = getelementptr inbounds nuw %struct.AVIOContext, ptr %82, i32 0, i32 9
  %84 = load i64, ptr %83, align 8, !tbaa !30
  %85 = load i32, ptr %6, align 4, !tbaa !11
  %86 = sext i32 %85 to i64
  %87 = add nsw i64 %84, %86
  %88 = load ptr, ptr %7, align 8, !tbaa !4
  %89 = getelementptr inbounds nuw %struct.FFIOContext, ptr %88, i32 0, i32 11
  store i64 %87, ptr %89, align 8, !tbaa !59
  br label %90

90:                                               ; preds = %81, %59
  br label %91

91:                                               ; preds = %90, %55
  call void @llvm.lifetime.end.p0(i64 4, ptr %8) #12
  br label %92

92:                                               ; preds = %91, %3
  %93 = load ptr, ptr %7, align 8, !tbaa !4
  %94 = getelementptr inbounds nuw %struct.FFIOContext, ptr %93, i32 0, i32 3
  %95 = load i32, ptr %94, align 4, !tbaa !43
  %96 = icmp eq i32 %95, 1
  br i1 %96, label %102, label %97

97:                                               ; preds = %92
  %98 = load ptr, ptr %7, align 8, !tbaa !4
  %99 = getelementptr inbounds nuw %struct.FFIOContext, ptr %98, i32 0, i32 3
  %100 = load i32, ptr %99, align 4, !tbaa !43
  %101 = icmp eq i32 %100, 2
  br i1 %101, label %102, label %105

102:                                              ; preds = %97, %92
  %103 = load ptr, ptr %7, align 8, !tbaa !4
  %104 = getelementptr inbounds nuw %struct.FFIOContext, ptr %103, i32 0, i32 3
  store i32 3, ptr %104, align 4, !tbaa !43
  br label %105

105:                                              ; preds = %102, %97
  %106 = load ptr, ptr %7, align 8, !tbaa !4
  %107 = getelementptr inbounds nuw %struct.FFIOContext, ptr %106, i32 0, i32 4
  store i64 -9223372036854775808, ptr %107, align 8, !tbaa !44
  %108 = load ptr, ptr %7, align 8, !tbaa !4
  %109 = getelementptr inbounds nuw %struct.FFIOContext, ptr %108, i32 0, i32 9
  %110 = load i32, ptr %109, align 4, !tbaa !60
  %111 = add nsw i32 %110, 1
  store i32 %111, ptr %109, align 4, !tbaa !60
  %112 = load i32, ptr %6, align 4, !tbaa !11
  %113 = sext i32 %112 to i64
  %114 = load ptr, ptr %4, align 8, !tbaa !14
  %115 = getelementptr inbounds nuw %struct.AVIOContext, ptr %114, i32 0, i32 9
  %116 = load i64, ptr %115, align 8, !tbaa !30
  %117 = add nsw i64 %116, %113
  store i64 %117, ptr %115, align 8, !tbaa !30
  call void @llvm.lifetime.end.p0(i64 8, ptr %7) #12
  ret void
}

; Function Attrs: nounwind uwtable
define void @avio_flush(ptr noundef %0) #0 {
  %2 = alloca ptr, align 8
  %3 = alloca i32, align 4
  store ptr %0, ptr %2, align 8, !tbaa !14
  call void @llvm.lifetime.start.p0(i64 4, ptr %3) #12
  %4 = load ptr, ptr %2, align 8, !tbaa !14
  %5 = getelementptr inbounds nuw %struct.AVIOContext, ptr %4, i32 0, i32 12
  %6 = load i32, ptr %5, align 8, !tbaa !46
  %7 = icmp ne i32 %6, 0
  br i1 %7, label %8, label %32

8:                                                ; preds = %1
  %9 = load ptr, ptr %2, align 8, !tbaa !14
  %10 = getelementptr inbounds nuw %struct.AVIOContext, ptr %9, i32 0, i32 3
  %11 = load ptr, ptr %10, align 8, !tbaa !23
  %12 = load ptr, ptr %2, align 8, !tbaa !14
  %13 = getelementptr inbounds nuw %struct.AVIOContext, ptr %12, i32 0, i32 26
  %14 = load ptr, ptr %13, align 8, !tbaa !24
  %15 = ptrtoint ptr %11 to i64
  %16 = ptrtoint ptr %14 to i64
  %17 = sub i64 %15, %16
  %18 = icmp sgt i64 0, %17
  br i1 %18, label %19, label %29

19:                                               ; preds = %8
  %20 = load ptr, ptr %2, align 8, !tbaa !14
  %21 = getelementptr inbounds nuw %struct.AVIOContext, ptr %20, i32 0, i32 3
  %22 = load ptr, ptr %21, align 8, !tbaa !23
  %23 = load ptr, ptr %2, align 8, !tbaa !14
  %24 = getelementptr inbounds nuw %struct.AVIOContext, ptr %23, i32 0, i32 26
  %25 = load ptr, ptr %24, align 8, !tbaa !24
  %26 = ptrtoint ptr %22 to i64
  %27 = ptrtoint ptr %25 to i64
  %28 = sub i64 %26, %27
  br label %30

29:                                               ; preds = %8
  br label %30

30:                                               ; preds = %29, %19
  %31 = phi i64 [ %28, %19 ], [ 0, %29 ]
  br label %33

32:                                               ; preds = %1
  br label %33

33:                                               ; preds = %32, %30
  %34 = phi i64 [ %31, %30 ], [ 0, %32 ]
  %35 = trunc i64 %34 to i32
  store i32 %35, ptr %3, align 4, !tbaa !11
  %36 = load ptr, ptr %2, align 8, !tbaa !14
  call void @flush_buffer(ptr noundef %36)
  %37 = load i32, ptr %3, align 4, !tbaa !11
  %38 = icmp ne i32 %37, 0
  br i1 %38, label %39, label %44

39:                                               ; preds = %33
  %40 = load ptr, ptr %2, align 8, !tbaa !14
  %41 = load i32, ptr %3, align 4, !tbaa !11
  %42 = sext i32 %41 to i64
  %43 = call i64 @avio_seek(ptr noundef %40, i64 noundef %42, i32 noundef 1)
  br label %44

44:                                               ; preds = %39, %33
  call void @llvm.lifetime.end.p0(i64 4, ptr %3) #12
  ret void
}

; Function Attrs: nounwind uwtable
define void @avio_write(ptr noundef %0, ptr noundef %1, i32 noundef %2) #0 {
  %4 = alloca ptr, align 8
  %5 = alloca ptr, align 8
  %6 = alloca i32, align 4
  %7 = alloca i32, align 4
  store ptr %0, ptr %4, align 8, !tbaa !14
  store ptr %1, ptr %5, align 8, !tbaa !9
  store i32 %2, ptr %6, align 4, !tbaa !11
  %8 = load i32, ptr %6, align 4, !tbaa !11
  %9 = icmp sle i32 %8, 0
  br i1 %9, label %10, label %11

10:                                               ; preds = %3
  br label %88

11:                                               ; preds = %3
  %12 = load ptr, ptr %4, align 8, !tbaa !14
  %13 = getelementptr inbounds nuw %struct.AVIOContext, ptr %12, i32 0, i32 21
  %14 = load i32, ptr %13, align 4, !tbaa !26
  %15 = icmp ne i32 %14, 0
  br i1 %15, label %16, label %26

16:                                               ; preds = %11
  %17 = load ptr, ptr %4, align 8, !tbaa !14
  %18 = getelementptr inbounds nuw %struct.AVIOContext, ptr %17, i32 0, i32 17
  %19 = load ptr, ptr %18, align 8, !tbaa !36
  %20 = icmp ne ptr %19, null
  br i1 %20, label %26, label %21

21:                                               ; preds = %16
  %22 = load ptr, ptr %4, align 8, !tbaa !14
  call void @avio_flush(ptr noundef %22)
  %23 = load ptr, ptr %4, align 8, !tbaa !14
  %24 = load ptr, ptr %5, align 8, !tbaa !9
  %25 = load i32, ptr %6, align 4, !tbaa !11
  call void @writeout(ptr noundef %23, ptr noundef %24, i32 noundef %25)
  br label %88

26:                                               ; preds = %16, %11
  br label %27

27:                                               ; preds = %85, %26
  call void @llvm.lifetime.start.p0(i64 4, ptr %7) #12
  %28 = load ptr, ptr %4, align 8, !tbaa !14
  %29 = getelementptr inbounds nuw %struct.AVIOContext, ptr %28, i32 0, i32 4
  %30 = load ptr, ptr %29, align 8, !tbaa !38
  %31 = load ptr, ptr %4, align 8, !tbaa !14
  %32 = getelementptr inbounds nuw %struct.AVIOContext, ptr %31, i32 0, i32 3
  %33 = load ptr, ptr %32, align 8, !tbaa !23
  %34 = ptrtoint ptr %30 to i64
  %35 = ptrtoint ptr %33 to i64
  %36 = sub i64 %34, %35
  %37 = load i32, ptr %6, align 4, !tbaa !11
  %38 = sext i32 %37 to i64
  %39 = icmp sgt i64 %36, %38
  br i1 %39, label %40, label %43

40:                                               ; preds = %27
  %41 = load i32, ptr %6, align 4, !tbaa !11
  %42 = sext i32 %41 to i64
  br label %53

43:                                               ; preds = %27
  %44 = load ptr, ptr %4, align 8, !tbaa !14
  %45 = getelementptr inbounds nuw %struct.AVIOContext, ptr %44, i32 0, i32 4
  %46 = load ptr, ptr %45, align 8, !tbaa !38
  %47 = load ptr, ptr %4, align 8, !tbaa !14
  %48 = getelementptr inbounds nuw %struct.AVIOContext, ptr %47, i32 0, i32 3
  %49 = load ptr, ptr %48, align 8, !tbaa !23
  %50 = ptrtoint ptr %46 to i64
  %51 = ptrtoint ptr %49 to i64
  %52 = sub i64 %50, %51
  br label %53

53:                                               ; preds = %43, %40
  %54 = phi i64 [ %42, %40 ], [ %52, %43 ]
  %55 = trunc i64 %54 to i32
  store i32 %55, ptr %7, align 4, !tbaa !11
  %56 = load ptr, ptr %4, align 8, !tbaa !14
  %57 = getelementptr inbounds nuw %struct.AVIOContext, ptr %56, i32 0, i32 3
  %58 = load ptr, ptr %57, align 8, !tbaa !23
  %59 = load ptr, ptr %5, align 8, !tbaa !9
  %60 = load i32, ptr %7, align 4, !tbaa !11
  %61 = sext i32 %60 to i64
  call void @llvm.memcpy.p0.p0.i64(ptr align 1 %58, ptr align 1 %59, i64 %61, i1 false)
  %62 = load i32, ptr %7, align 4, !tbaa !11
  %63 = load ptr, ptr %4, align 8, !tbaa !14
  %64 = getelementptr inbounds nuw %struct.AVIOContext, ptr %63, i32 0, i32 3
  %65 = load ptr, ptr %64, align 8, !tbaa !23
  %66 = sext i32 %62 to i64
  %67 = getelementptr inbounds i8, ptr %65, i64 %66
  store ptr %67, ptr %64, align 8, !tbaa !23
  %68 = load ptr, ptr %4, align 8, !tbaa !14
  %69 = getelementptr inbounds nuw %struct.AVIOContext, ptr %68, i32 0, i32 3
  %70 = load ptr, ptr %69, align 8, !tbaa !23
  %71 = load ptr, ptr %4, align 8, !tbaa !14
  %72 = getelementptr inbounds nuw %struct.AVIOContext, ptr %71, i32 0, i32 4
  %73 = load ptr, ptr %72, align 8, !tbaa !38
  %74 = icmp uge ptr %70, %73
  br i1 %74, label %75, label %77

75:                                               ; preds = %53
  %76 = load ptr, ptr %4, align 8, !tbaa !14
  call void @flush_buffer(ptr noundef %76)
  br label %77

77:                                               ; preds = %75, %53
  %78 = load i32, ptr %7, align 4, !tbaa !11
  %79 = load ptr, ptr %5, align 8, !tbaa !9
  %80 = sext i32 %78 to i64
  %81 = getelementptr inbounds i8, ptr %79, i64 %80
  store ptr %81, ptr %5, align 8, !tbaa !9
  %82 = load i32, ptr %7, align 4, !tbaa !11
  %83 = load i32, ptr %6, align 4, !tbaa !11
  %84 = sub nsw i32 %83, %82
  store i32 %84, ptr %6, align 4, !tbaa !11
  call void @llvm.lifetime.end.p0(i64 4, ptr %7) #12
  br label %85

85:                                               ; preds = %77
  %86 = load i32, ptr %6, align 4, !tbaa !11
  %87 = icmp sgt i32 %86, 0
  br i1 %87, label %27, label %88, !llvm.loop !56

88:                                               ; preds = %10, %21, %85
  ret void
}