; Function Attrs: nounwind uwtable
define void @avio_write(ptr noundef %0, ptr noundef %1, i32 noundef %2) local_unnamed_addr #3 {
  %4 = icmp slt i32 %2, 1
  br i1 %4, label %.loopexit, label %5

5:                                                ; preds = %3
  %6 = getelementptr inbounds nuw i8, ptr %0, i64 148
  %7 = load i32, ptr %6, align 4, !tbaa !44
  %.not = icmp eq i32 %7, 0
  br i1 %.not, label %75, label %8

8:                                                ; preds = %5
  %9 = getelementptr inbounds nuw i8, ptr %0, i64 120
  %10 = load ptr, ptr %9, align 8, !tbaa !39
  %.not30 = icmp eq ptr %10, null
  br i1 %.not30, label %11, label %75

11:                                               ; preds = %8
  %12 = getelementptr inbounds nuw i8, ptr %0, i64 88
  %13 = load i32, ptr %12, align 8, !tbaa !20
  %.not.i = icmp eq i32 %13, 0
  br i1 %.not.i, label %.thread.i, label %14

14:                                               ; preds = %11
  %15 = getelementptr inbounds nuw i8, ptr %0, i64 24
  %16 = load ptr, ptr %15, align 8, !tbaa !16
  %17 = getelementptr inbounds nuw i8, ptr %0, i64 184
  %18 = load ptr, ptr %17, align 8, !tbaa !17
  %19 = ptrtoint ptr %16 to i64
  %20 = ptrtoint ptr %18 to i64
  %21 = sub i64 %19, %20
  %22 = icmp slt i64 %21, 0
  br i1 %22, label %23, label %.thread.i

.thread.i:                                        ; preds = %14, %11
  tail call fastcc void @flush_buffer(ptr noundef nonnull %0)
  br label %avio_flush.exit

23:                                               ; preds = %14
  tail call fastcc void @flush_buffer(ptr noundef nonnull %0)
  %24 = and i64 %21, 4294967295
  %.not9.i = icmp eq i64 %24, 0
  br i1 %.not9.i, label %avio_flush.exit, label %25

25:                                               ; preds = %23
  %sext.i = shl i64 %21, 32
  %26 = ashr exact i64 %sext.i, 32
  %27 = tail call i64 @avio_seek(ptr noundef nonnull %0, i64 noundef %26, i32 noundef 1)
  br label %avio_flush.exit

avio_flush.exit:                                  ; preds = %.thread.i, %23, %25
  %28 = getelementptr inbounds nuw i8, ptr %0, i64 84
  %29 = load i32, ptr %28, align 4, !tbaa !34
  %.not.i32 = icmp eq i32 %29, 0
  br i1 %.not.i32, label %30, label %63

30:                                               ; preds = %avio_flush.exit
  %31 = getelementptr inbounds nuw i8, ptr %0, i64 168
  %32 = load ptr, ptr %31, align 8, !tbaa !28
  %.not37.i = icmp eq ptr %32, null
  br i1 %.not37.i, label %41, label %33

33:                                               ; preds = %30
  %34 = getelementptr inbounds nuw i8, ptr %0, i64 40
  %35 = load ptr, ptr %34, align 8, !tbaa !18
  %36 = getelementptr inbounds nuw i8, ptr %0, i64 220
  %37 = load i32, ptr %36, align 4, !tbaa !30
  %38 = getelementptr inbounds nuw i8, ptr %0, i64 224
  %39 = load i64, ptr %38, align 8, !tbaa !31
  %40 = tail call i32 %32(ptr noundef %35, ptr noundef %1, i32 noundef %2, i32 noundef %37, i64 noundef %39) #14
  br label %48

41:                                               ; preds = %30
  %42 = getelementptr inbounds nuw i8, ptr %0, i64 56
  %43 = load ptr, ptr %42, align 8, !tbaa !21
  %.not38.i = icmp eq ptr %43, null
  br i1 %.not38.i, label %.thread.i33, label %44

44:                                               ; preds = %41
  %45 = getelementptr inbounds nuw i8, ptr %0, i64 40
  %46 = load ptr, ptr %45, align 8, !tbaa !18
  %47 = tail call i32 %43(ptr noundef %46, ptr noundef %1, i32 noundef %2) #14
  br label %48

48:                                               ; preds = %44, %33
  %.0.i = phi i32 [ %40, %33 ], [ %47, %44 ]
  %49 = icmp slt i32 %.0.i, 0
  br i1 %49, label %50, label %.thread.i33

50:                                               ; preds = %48
  store i32 %.0.i, ptr %28, align 4, !tbaa !34
  br label %63

.thread.i33:                                      ; preds = %48, %41
  %51 = zext nneg i32 %2 to i64
  %52 = getelementptr inbounds nuw i8, ptr %0, i64 248
  %53 = load i64, ptr %52, align 8, !tbaa !35
  %54 = add nsw i64 %53, %51
  store i64 %54, ptr %52, align 8, !tbaa !35
  %55 = getelementptr inbounds nuw i8, ptr %0, i64 200
  store i64 %54, ptr %55, align 8, !tbaa !36
  %56 = getelementptr inbounds nuw i8, ptr %0, i64 72
  %57 = load i64, ptr %56, align 8, !tbaa !27
  %58 = add nsw i64 %57, %51
  %59 = getelementptr inbounds nuw i8, ptr %0, i64 272
  %60 = load i64, ptr %59, align 8, !tbaa !37
  %61 = icmp sgt i64 %58, %60
  br i1 %61, label %62, label %63

62:                                               ; preds = %.thread.i33
  store i64 %58, ptr %59, align 8, !tbaa !37
  br label %63

63:                                               ; preds = %62, %.thread.i33, %50, %avio_flush.exit
  %64 = getelementptr inbounds nuw i8, ptr %0, i64 220
  %65 = load i32, ptr %64, align 4, !tbaa !30
  %.off.i = add i32 %65, -1
  %switch.i = icmp ult i32 %.off.i, 2
  br i1 %switch.i, label %66, label %writeout.exit

66:                                               ; preds = %63
  store i32 3, ptr %64, align 4, !tbaa !30
  br label %writeout.exit

writeout.exit:                                    ; preds = %63, %66
  %67 = getelementptr inbounds nuw i8, ptr %0, i64 224
  store i64 -9223372036854775808, ptr %67, align 8, !tbaa !31
  %68 = getelementptr inbounds nuw i8, ptr %0, i64 260
  %69 = load i32, ptr %68, align 4, !tbaa !38
  %70 = add nsw i32 %69, 1
  store i32 %70, ptr %68, align 4, !tbaa !38
  %71 = zext nneg i32 %2 to i64
  %72 = getelementptr inbounds nuw i8, ptr %0, i64 72
  %73 = load i64, ptr %72, align 8, !tbaa !27
  %74 = add nsw i64 %73, %71
  store i64 %74, ptr %72, align 8, !tbaa !27
  br label %.loopexit

75:                                               ; preds = %8, %5
  %76 = getelementptr inbounds nuw i8, ptr %0, i64 32
  %77 = getelementptr inbounds nuw i8, ptr %0, i64 24
  br label %78

78:                                               ; preds = %92, %75
  %.025 = phi i32 [ %2, %75 ], [ %94, %92 ]
  %.0 = phi ptr [ %1, %75 ], [ %93, %92 ]
  %79 = load ptr, ptr %76, align 8, !tbaa !19
  %80 = load ptr, ptr %77, align 8, !tbaa !16
  %81 = ptrtoint ptr %79 to i64
  %82 = ptrtoint ptr %80 to i64
  %83 = sub i64 %81, %82
  %84 = zext nneg i32 %.025 to i64
  %85 = tail call i64 @llvm.smin.i64(i64 %83, i64 %84)
  %86 = trunc i64 %85 to i32
  %sext = shl i64 %85, 32
  %87 = ashr exact i64 %sext, 32
  tail call void @llvm.memcpy.p0.p0.i64(ptr align 1 %80, ptr align 1 %.0, i64 %87, i1 false)
  %88 = load ptr, ptr %77, align 8, !tbaa !16
  %89 = getelementptr inbounds i8, ptr %88, i64 %87
  store ptr %89, ptr %77, align 8, !tbaa !16
  %90 = load ptr, ptr %76, align 8, !tbaa !19
  %.not31 = icmp ult ptr %89, %90
  br i1 %.not31, label %92, label %91

91:                                               ; preds = %78
  tail call fastcc void @flush_buffer(ptr noundef nonnull %0)
  br label %92

92:                                               ; preds = %91, %78
  %93 = getelementptr inbounds i8, ptr %.0, i64 %87
  %94 = sub nsw i32 %.025, %86
  %95 = icmp sgt i32 %94, 0
  br i1 %95, label %78, label %.loopexit, !llvm.loop !45

.loopexit:                                        ; preds = %92, %3, %writeout.exit
  ret void
}